target datalayout = "e-m:e-p270:32:32-p271:32:32-p272:64:64-i64:64-i128:128-f80:128-n8:16:32:64-S128"
target triple = "x86_64-pc-linux-gnu"

%"class.fmt::v11::file" = type { i32 }
%"class.fmt::v11::detail::buffer" = type { ptr, i64, i64, ptr }
%"class.fmt::v11::ostream" = type <{ %"class.fmt::v11::detail::buffer", %"class.fmt::v11::file", [4 x i8] }>

@_ZN3fmt3v114fileD1Ev = hidden unnamed_addr alias void (ptr), ptr @_ZN3fmt3v114fileD2Ev

; Function Attrs: mustprogress nounwind uwtable
define linkonce_odr hidden void @_ZN3fmt3v116detail6bufferIcE5clearEv(ptr noundef nonnull align 8 dereferenceable(32) %0) #0 comdat align 2 {
  %2 = alloca ptr, align 8
  store ptr %0, ptr %2, align 8, !tbaa !94
  %3 = load ptr, ptr %2, align 8
  %4 = getelementptr inbounds nuw %"class.fmt::v11::detail::buffer", ptr %3, i32 0, i32 1
  store i64 0, ptr %4, align 8, !tbaa !96
  ret void
}

; Function Attrs: mustprogress nounwind uwtable
define linkonce_odr hidden noundef i64 @_ZNK3fmt3v116detail6bufferIcE4sizeEv(ptr noundef nonnull align 8 dereferenceable(32) %0) #0 comdat align 2 {
  %2 = alloca ptr, align 8
  store ptr %0, ptr %2, align 8, !tbaa !94
  %3 = load ptr, ptr %2, align 8
  %4 = getelementptr inbounds nuw %"class.fmt::v11::detail::buffer", ptr %3, i32 0, i32 1
  %5 = load i64, ptr %4, align 8, !tbaa !96
  ret i64 %5
}

; Function Attrs: mustprogress nounwind uwtable
define linkonce_odr hidden noundef ptr @_ZN3fmt3v116detail6bufferIcE4dataEv(ptr noundef nonnull align 8 dereferenceable(32) %0) #0 comdat align 2 {
  %2 = alloca ptr, align 8
  store ptr %0, ptr %2, align 8, !tbaa !94
  %3 = load ptr, ptr %2, align 8
  %4 = getelementptr inbounds nuw %"class.fmt::v11::detail::buffer", ptr %3, i32 0, i32 0
  %5 = load ptr, ptr %4, align 8, !tbaa !107
  ret ptr %5
}

; Function Attrs: inlinehint mustprogress uwtable
define linkonce_odr hidden void @_ZN3fmt3v117ostream5flushEv(ptr noundef nonnull align 8 dereferenceable(36) %0) #6 comdat align 2 {
  %2 = alloca ptr, align 8
  store ptr %0, ptr %2, align 8, !tbaa !99
  %3 = load ptr, ptr %2, align 8
  %4 = call noundef i64 @_ZNK3fmt3v116detail6bufferIcE4sizeEv(ptr noundef nonnull align 8 dereferenceable(32) %3) #16
  %5 = icmp eq i64 %4, 0
  br i1 %5, label %6, label %7

6:                                                ; preds = %1
  br label %13

7:                                                ; preds = %1
  %8 = getelementptr inbounds nuw %"class.fmt::v11::ostream", ptr %3, i32 0, i32 1
  %9 = call noundef ptr @_ZN3fmt3v116detail6bufferIcE4dataEv(ptr noundef nonnull align 8 dereferenceable(32) %3) #16
  %10 = call noundef i64 @_ZNK3fmt3v116detail6bufferIcE4sizeEv(ptr noundef nonnull align 8 dereferenceable(32) %3) #16
  %11 = mul i64 %10, 1
  %12 = call noundef i64 @_ZN3fmt3v114file5writeEPKvm(ptr noundef nonnull align 4 dereferenceable(4) %8, ptr noundef %9, i64 noundef %11)
  call void @_ZN3fmt3v116detail6bufferIcE5clearEv(ptr noundef nonnull align 8 dereferenceable(32) %3)
  br label %13

13:                                               ; preds = %7, %6
  ret void
}

; Function Attrs: mustprogress nounwind uwtable
define hidden void @_ZN3fmt3v117ostreamD2Ev(ptr noundef nonnull align 8 dereferenceable(36) %0) unnamed_addr #0 align 2 personality ptr @__gxx_personality_v0 {
  %2 = alloca ptr, align 8
  store ptr %0, ptr %2, align 8, !tbaa !99
  %3 = load ptr, ptr %2, align 8
  invoke void @_ZN3fmt3v117ostream5flushEv(ptr noundef nonnull align 8 dereferenceable(36) %3)
          to label %4 unwind label %10

4:                                                ; preds = %1
  %5 = call noundef ptr @_ZN3fmt3v116detail6bufferIcE4dataEv(ptr noundef nonnull align 8 dereferenceable(32) %3) #16
  %6 = icmp eq ptr %5, null
  br i1 %6, label %8, label %7

7:                                                ; preds = %4
  call void @_ZdaPv(ptr noundef %5) #24
  br label %8

8:                                                ; preds = %7, %4
  %9 = getelementptr inbounds nuw %"class.fmt::v11::ostream", ptr %3, i32 0, i32 1
  call void @_ZN3fmt3v114fileD1Ev(ptr noundef nonnull align 4 dereferenceable(4) %9) #16
  ret void

10:                                               ; preds = %1
  %11 = landingpad { ptr, i32 }
          catch ptr null
  %12 = extractvalue { ptr, i32 } %11, 0
  call void @__clang_call_terminate(ptr %12) #21
  unreachable
}