; Function Attrs: mustprogress nounwind uwtable
define hidden void @_ZN3fmt3v117ostreamD2Ev(ptr noundef nonnull align 8 captures(none) dereferenceable(36) %0) unnamed_addr #0 align 2 personality ptr @__gxx_personality_v0 {
  %2 = getelementptr inbounds nuw i8, ptr %0, i64 8
  %3 = load i64, ptr %2, align 8, !tbaa !67
  %4 = icmp eq i64 %3, 0
  br i1 %4, label %_ZN3fmt3v117ostream5flushEv.exit, label %5

5:                                                ; preds = %1
  %6 = getelementptr inbounds nuw i8, ptr %0, i64 32
  %7 = load ptr, ptr %0, align 8, !tbaa !71
  %8 = invoke noundef i64 @_ZN3fmt3v114file5writeEPKvm(ptr noundef nonnull align 4 dereferenceable(4) %6, ptr noundef %7, i64 noundef %3)
          to label %.noexc unwind label %26

.noexc:                                           ; preds = %5
  store i64 0, ptr %2, align 8, !tbaa !67
  br label %_ZN3fmt3v117ostream5flushEv.exit

_ZN3fmt3v117ostream5flushEv.exit:                 ; preds = %.noexc, %1
  %9 = load ptr, ptr %0, align 8, !tbaa !71
  %10 = icmp eq ptr %9, null
  br i1 %10, label %12, label %11

11:                                               ; preds = %_ZN3fmt3v117ostream5flushEv.exit
  tail call void @_ZdaPv(ptr noundef nonnull %9) #33
  br label %12

12:                                               ; preds = %11, %_ZN3fmt3v117ostream5flushEv.exit
  %13 = getelementptr inbounds nuw i8, ptr %0, i64 32
  %14 = load i32, ptr %13, align 8, !tbaa !24
  %.not.i = icmp eq i32 %14, -1
  br i1 %.not.i, label %_ZN3fmt3v114fileD2Ev.exit, label %15

15:                                               ; preds = %12
  %16 = invoke i32 @close(i32 noundef %14)
          to label %.noexc.i unwind label %23

.noexc.i:                                         ; preds = %15
  %17 = load i32, ptr @_ZN12_GLOBAL__N_111close_countE, align 4, !tbaa !10
  %.not.i.i = icmp eq i32 %17, 0
  br i1 %.not.i.i, label %_ZN4test5closeEi.exit.i, label %18

18:                                               ; preds = %.noexc.i
  %19 = add nsw i32 %17, 1
  store i32 %19, ptr @_ZN12_GLOBAL__N_111close_countE, align 4, !tbaa !10
  %.not4.i.i = icmp eq i32 %17, 3
  br i1 %.not4.i.i, label %_ZN4test5closeEi.exit.i, label %_ZN4test5closeEi.exit.thread.i

_ZN4test5closeEi.exit.thread.i:                   ; preds = %18
  %20 = tail call ptr @__errno_location() #28
  store i32 4, ptr %20, align 4, !tbaa !10
  br label %21

_ZN4test5closeEi.exit.i:                          ; preds = %18, %.noexc.i
  %.not1.i = icmp eq i32 %16, 0
  br i1 %.not1.i, label %_ZN3fmt3v114fileD2Ev.exit, label %_ZN4test5closeEi.exit._crit_edge.i

_ZN4test5closeEi.exit._crit_edge.i:               ; preds = %_ZN4test5closeEi.exit.i
  %.pre.i = tail call ptr @__errno_location() #28
  %.pre = load i32, ptr %.pre.i, align 4, !tbaa !10
  br label %21

21:                                               ; preds = %_ZN4test5closeEi.exit._crit_edge.i, %_ZN4test5closeEi.exit.thread.i
  %22 = phi i32 [ %.pre, %_ZN4test5closeEi.exit._crit_edge.i ], [ 4, %_ZN4test5closeEi.exit.thread.i ]
  tail call void @_ZN3fmt3v1119report_system_errorEiPKc(i32 noundef %22, ptr noundef nonnull @.str) #29
  br label %_ZN3fmt3v114fileD2Ev.exit

23:                                               ; preds = %15
  %24 = landingpad { ptr, i32 }
          catch ptr null
  %25 = extractvalue { ptr, i32 } %24, 0
  tail call void @__clang_call_terminate(ptr %25) #30
  unreachable

_ZN3fmt3v114fileD2Ev.exit:                        ; preds = %12, %_ZN4test5closeEi.exit.i, %21
  ret void

26:                                               ; preds = %5
  %27 = landingpad { ptr, i32 }
          catch ptr null
  %28 = extractvalue { ptr, i32 } %27, 0
  tail call void @__clang_call_terminate(ptr %28) #30
  unreachable
}